target datalayout = "e-m:e-p270:32:32-p271:32:32-p272:64:64-i64:64-i128:128-f80:128-n8:16:32:64-S128"
target triple = "x86_64-pc-linux-gnu"

%"class.std::basic_string_view" = type { i64, ptr }
%"class.grpc_core::CompressionAlgorithmSet" = type { %"class.grpc_core::BitSet" }
%"class.grpc_core::BitSet" = type { [1 x i8] }
%"class.std::optional.6" = type { %"struct.std::_Optional_base.7" }
%"struct.std::_Optional_base.7" = type { %"struct.std::_Optional_payload.9" }
%"struct.std::_Optional_payload.9" = type { %"struct.std::_Optional_payload_base.base.11", [3 x i8] }
%"struct.std::_Optional_payload_base.base.11" = type <{ %"union.std::_Optional_payload_base<int>::_Storage", i8 }>
%"union.std::_Optional_payload_base<int>::_Storage" = type { i32 }
%"struct.std::_Optional_payload_base.10" = type <{ %"union.std::_Optional_payload_base<int>::_Storage", i8, [3 x i8] }>

@_ZZN9grpc_core23CompressionAlgorithmSet15FromChannelArgsERKNS_11ChannelArgsEE11kEverything = internal constant i32 7, align 4
@.str.7 = private unnamed_addr constant [43 x i8] c"grpc.compression_enabled_algorithms_bitset\00", align 1
@_ZN9grpc_core23CompressionAlgorithmSetC1Ev = unnamed_addr alias void (ptr), ptr @_ZN9grpc_core23CompressionAlgorithmSetC2Ev

; Function Attrs: mustprogress nounwind uwtable
define linkonce_odr noundef i64 @_ZN9grpc_core6BitSetILm3ELm8EE8unit_forEm(i64 noundef %0) #4 comdat align 2 {
  %2 = alloca i64, align 8
  store i64 %0, ptr %2, align 8, !tbaa !17
  %3 = load i64, ptr %2, align 8, !tbaa !17
  %4 = udiv i64 %3, 8
  ret i64 %4
}

; Function Attrs: mustprogress nounwind uwtable
define linkonce_odr noundef zeroext i8 @_ZN9grpc_core6BitSetILm3ELm8EE8mask_forEm(i64 noundef %0) #4 comdat align 2 {
  %2 = alloca i64, align 8
  store i64 %0, ptr %2, align 8, !tbaa !17
  %3 = load i64, ptr %2, align 8, !tbaa !17
  %4 = urem i64 %3, 8
  %5 = trunc i64 %4 to i32
  %6 = shl i32 1, %5
  %7 = trunc i32 %6 to i8
  ret i8 %7
}

; Function Attrs: mustprogress nounwind uwtable
define linkonce_odr noundef nonnull align 4 dereferenceable(4) ptr @_ZNSt22_Optional_payload_baseIiE6_M_getEv(ptr noundef nonnull align 4 dereferenceable(5) %0) #4 comdat align 2 {
  %2 = alloca ptr, align 8
  store ptr %0, ptr %2, align 8, !tbaa !131
  %3 = load ptr, ptr %2, align 8
  %4 = getelementptr inbounds nuw %"struct.std::_Optional_payload_base.10", ptr %3, i32 0, i32 0
  ret ptr %4
}

; Function Attrs: mustprogress nounwind uwtable
define linkonce_odr void @_ZN9grpc_core6BitSetILm3ELm8EE3setEi(ptr noundef nonnull align 1 dereferenceable(1) %0, i32 noundef %1) #4 comdat align 2 {
  %3 = alloca ptr, align 8
  %4 = alloca i32, align 4
  store ptr %0, ptr %3, align 8, !tbaa !66
  store i32 %1, ptr %4, align 4, !tbaa !37
  %5 = load ptr, ptr %3, align 8
  %6 = load i32, ptr %4, align 4, !tbaa !37
  %7 = sext i32 %6 to i64
  %8 = call noundef zeroext i8 @_ZN9grpc_core6BitSetILm3ELm8EE8mask_forEm(i64 noundef %7)
  %9 = zext i8 %8 to i32
  %10 = getelementptr inbounds nuw %"class.grpc_core::BitSet", ptr %5, i32 0, i32 0
  %11 = load i32, ptr %4, align 4, !tbaa !37
  %12 = sext i32 %11 to i64
  %13 = call noundef i64 @_ZN9grpc_core6BitSetILm3ELm8EE8unit_forEm(i64 noundef %12)
  %14 = getelementptr inbounds nuw [1 x i8], ptr %10, i64 0, i64 %13
  %15 = load i8, ptr %14, align 1, !tbaa !19
  %16 = zext i8 %15 to i32
  %17 = or i32 %16, %9
  %18 = trunc i32 %17 to i8
  store i8 %18, ptr %14, align 1, !tbaa !19
  ret void
}

; Function Attrs: mustprogress nounwind uwtable
define linkonce_odr noundef nonnull align 4 dereferenceable(4) ptr @_ZNSt19_Optional_base_implIiSt14_Optional_baseIiLb1ELb1EEE6_M_getEv(ptr noundef nonnull align 1 dereferenceable(1) %0) #4 comdat align 2 {
  %2 = alloca ptr, align 8
  store ptr %0, ptr %2, align 8, !tbaa !125
  %3 = load ptr, ptr %2, align 8
  br label %4

4:                                                ; preds = %1
  br label %5

5:                                                ; preds = %4
  br label %6

6:                                                ; preds = %5
  %7 = getelementptr inbounds nuw %"struct.std::_Optional_base.7", ptr %3, i32 0, i32 0
  %8 = call noundef nonnull align 4 dereferenceable(4) ptr @_ZNSt22_Optional_payload_baseIiE6_M_getEv(ptr noundef nonnull align 4 dereferenceable(5) %7) #3
  ret ptr %8
}

; Function Attrs: mustprogress nounwind uwtable
define linkonce_odr noundef zeroext i1 @_ZNKSt19_Optional_base_implIiSt14_Optional_baseIiLb1ELb1EEE13_M_is_engagedEv(ptr noundef nonnull align 1 dereferenceable(1) %0) #4 comdat align 2 {
  %2 = alloca ptr, align 8
  store ptr %0, ptr %2, align 8, !tbaa !125
  %3 = load ptr, ptr %2, align 8
  %4 = getelementptr inbounds nuw %"struct.std::_Optional_base.7", ptr %3, i32 0, i32 0
  %5 = getelementptr inbounds nuw %"struct.std::_Optional_payload_base.10", ptr %4, i32 0, i32 1
  %6 = load i8, ptr %5, align 4, !tbaa !127, !range !129, !noundef !130
  %7 = trunc i8 %6 to i1
  ret i1 %7
}

; Function Attrs: noinline noreturn nounwind uwtable
define linkonce_odr hidden void @__clang_call_terminate(ptr noundef %0) #14 comdat {
  %2 = call ptr @__cxa_begin_catch(ptr %0) #3
  call void @_ZSt9terminatev() #20
  unreachable
}

; Function Attrs: mustprogress nounwind uwtable
define linkonce_odr noundef i64 @_ZNSt11char_traitsIcE6lengthEPKc(ptr noundef %0) #4 comdat align 2 {
  %2 = alloca ptr, align 8
  store ptr %0, ptr %2, align 8, !tbaa !10
  %3 = load ptr, ptr %2, align 8, !tbaa !10
  %4 = call i64 @strlen(ptr noundef %3) #3
  ret i64 %4
}

; Function Attrs: mustprogress uwtable
define i8 @_ZN9grpc_core23CompressionAlgorithmSet10FromUint32Ej(i32 noundef %0) #5 align 2 {
  %2 = alloca %"class.grpc_core::CompressionAlgorithmSet", align 1
  %3 = alloca i32, align 4
  %4 = alloca i64, align 8
  store i32 %0, ptr %3, align 4, !tbaa !37
  call void @_ZN9grpc_core23CompressionAlgorithmSetC1Ev(ptr noundef nonnull align 1 dereferenceable(1) %2)
  call void @llvm.lifetime.start.p0(i64 8, ptr %4) #3
  store i64 0, ptr %4, align 8, !tbaa !17
  br label %5

5:                                                ; preds = %21, %1
  %6 = load i64, ptr %4, align 8, !tbaa !17
  %7 = icmp ult i64 %6, 3
  br i1 %7, label %9, label %8

8:                                                ; preds = %5
  call void @llvm.lifetime.end.p0(i64 8, ptr %4) #3
  br label %24

9:                                                ; preds = %5
  %10 = load i32, ptr %3, align 4, !tbaa !37
  %11 = load i64, ptr %4, align 8, !tbaa !17
  %12 = trunc i64 %11 to i32
  %13 = shl i32 1, %12
  %14 = and i32 %10, %13
  %15 = icmp ne i32 %14, 0
  br i1 %15, label %16, label %20

16:                                               ; preds = %9
  %17 = getelementptr inbounds nuw %"class.grpc_core::CompressionAlgorithmSet", ptr %2, i32 0, i32 0
  %18 = load i64, ptr %4, align 8, !tbaa !17
  %19 = trunc i64 %18 to i32
  call void @_ZN9grpc_core6BitSetILm3ELm8EE3setEi(ptr noundef nonnull align 1 dereferenceable(1) %17, i32 noundef %19)
  br label %20

20:                                               ; preds = %16, %9
  br label %21

21:                                               ; preds = %20
  %22 = load i64, ptr %4, align 8, !tbaa !17
  %23 = add i64 %22, 1
  store i64 %23, ptr %4, align 8, !tbaa !17
  br label %5, !llvm.loop !68

24:                                               ; preds = %8
  %25 = getelementptr inbounds nuw %"class.grpc_core::CompressionAlgorithmSet", ptr %2, i32 0, i32 0
  %26 = getelementptr inbounds nuw %"class.grpc_core::BitSet", ptr %25, i32 0, i32 0
  %27 = load i8, ptr %26, align 1
  ret i8 %27
}

; Function Attrs: mustprogress nounwind uwtable
define linkonce_odr noundef i32 @_ZNOSt8optionalIiE8value_orIRKjEEiOT_(ptr noundef nonnull align 4 dereferenceable(8) %0, ptr noundef nonnull align 4 dereferenceable(4) %1) #4 comdat align 2 {
  %3 = alloca i32, align 4
  %4 = alloca ptr, align 8
  %5 = alloca ptr, align 8
  store ptr %0, ptr %4, align 8, !tbaa !71
  store ptr %1, ptr %5, align 8, !tbaa !48
  %6 = load ptr, ptr %4, align 8
  %7 = call noundef zeroext i1 @_ZNKSt19_Optional_base_implIiSt14_Optional_baseIiLb1ELb1EEE13_M_is_engagedEv(ptr noundef nonnull align 1 dereferenceable(1) %6) #3
  br i1 %7, label %8, label %11

8:                                                ; preds = %2
  %9 = call noundef nonnull align 4 dereferenceable(4) ptr @_ZNSt19_Optional_base_implIiSt14_Optional_baseIiLb1ELb1EEE6_M_getEv(ptr noundef nonnull align 1 dereferenceable(1) %6) #3
  %10 = load i32, ptr %9, align 4, !tbaa !37
  store i32 %10, ptr %3, align 4
  br label %14

11:                                               ; preds = %2
  %12 = load ptr, ptr %5, align 8, !tbaa !48
  %13 = load i32, ptr %12, align 4, !tbaa !37
  store i32 %13, ptr %3, align 4
  br label %14

14:                                               ; preds = %11, %8
  %15 = load i32, ptr %3, align 4
  ret i32 %15
}

; Function Attrs: mustprogress nounwind uwtable
define linkonce_odr void @_ZNSt17basic_string_viewIcSt11char_traitsIcEEC2EPKc(ptr noundef nonnull align 8 dereferenceable(16) %0, ptr noundef nonnull %1) unnamed_addr #4 comdat align 2 personality ptr @__gxx_personality_v0 {
  %3 = alloca ptr, align 8
  %4 = alloca ptr, align 8
  store ptr %0, ptr %3, align 8, !tbaa !25
  store ptr %1, ptr %4, align 8, !tbaa !10
  %5 = load ptr, ptr %3, align 8
  %6 = getelementptr inbounds nuw %"class.std::basic_string_view", ptr %5, i32 0, i32 0
  %7 = load ptr, ptr %4, align 8, !tbaa !10
  %8 = invoke noundef i64 @_ZNSt11char_traitsIcE6lengthEPKc(ptr noundef %7)
          to label %9 unwind label %12

9:                                                ; preds = %2
  store i64 %8, ptr %6, align 8, !tbaa !27
  %10 = getelementptr inbounds nuw %"class.std::basic_string_view", ptr %5, i32 0, i32 1
  %11 = load ptr, ptr %4, align 8, !tbaa !10
  store ptr %11, ptr %10, align 8, !tbaa !29
  ret void

12:                                               ; preds = %2
  %13 = landingpad { ptr, i32 }
          catch ptr null
  %14 = extractvalue { ptr, i32 } %13, 0
  call void @__clang_call_terminate(ptr %14) #20
  unreachable
}

; Function Attrs: mustprogress uwtable
define i8 @_ZN9grpc_core23CompressionAlgorithmSet15FromChannelArgsERKNS_11ChannelArgsE(ptr noundef nonnull align 8 dereferenceable(8) %0) #5 align 2 {
  %2 = alloca %"class.grpc_core::CompressionAlgorithmSet", align 1
  %3 = alloca ptr, align 8
  %4 = alloca %"class.grpc_core::CompressionAlgorithmSet", align 1
  %5 = alloca %"class.std::optional.6", align 4
  %6 = alloca %"class.std::basic_string_view", align 8
  store ptr %0, ptr %3, align 8, !tbaa !69
  call void @llvm.lifetime.start.p0(i64 1, ptr %4) #3
  call void @_ZN9grpc_core23CompressionAlgorithmSetC1Ev(ptr noundef nonnull align 1 dereferenceable(1) %4)
  call void @llvm.lifetime.start.p0(i64 8, ptr %5) #3
  %7 = load ptr, ptr %3, align 8, !tbaa !69
  call void @_ZNSt17basic_string_viewIcSt11char_traitsIcEEC2EPKc(ptr noundef nonnull align 8 dereferenceable(16) %6, ptr noundef @.str.7) #3
  %8 = getelementptr inbounds nuw { i64, ptr }, ptr %6, i32 0, i32 0
  %9 = load i64, ptr %8, align 8
  %10 = getelementptr inbounds nuw { i64, ptr }, ptr %6, i32 0, i32 1
  %11 = load ptr, ptr %10, align 8
  %12 = call i64 @_ZNK9grpc_core11ChannelArgs6GetIntESt17basic_string_viewIcSt11char_traitsIcEE(ptr noundef nonnull align 8 dereferenceable(8) %7, i64 %9, ptr %11)
  %13 = getelementptr inbounds nuw %"class.std::optional.6", ptr %5, i32 0, i32 0
  %14 = getelementptr inbounds nuw %"struct.std::_Optional_base.7", ptr %13, i32 0, i32 0
  store i64 %12, ptr %14, align 4
  %15 = call noundef i32 @_ZNOSt8optionalIiE8value_orIRKjEEiOT_(ptr noundef nonnull align 4 dereferenceable(8) %5, ptr noundef nonnull align 4 dereferenceable(4) @_ZZN9grpc_core23CompressionAlgorithmSet15FromChannelArgsERKNS_11ChannelArgsEE11kEverything)
  %16 = call i8 @_ZN9grpc_core23CompressionAlgorithmSet10FromUint32Ej(i32 noundef %15)
  %17 = getelementptr inbounds nuw %"class.grpc_core::CompressionAlgorithmSet", ptr %2, i32 0, i32 0
  %18 = getelementptr inbounds nuw %"class.grpc_core::BitSet", ptr %17, i32 0, i32 0
  store i8 %16, ptr %18, align 1
  call void @llvm.lifetime.end.p0(i64 8, ptr %5) #3
  call void @llvm.lifetime.end.p0(i64 1, ptr %4) #3
  %19 = getelementptr inbounds nuw %"class.grpc_core::CompressionAlgorithmSet", ptr %2, i32 0, i32 0
  %20 = getelementptr inbounds nuw %"class.grpc_core::BitSet", ptr %19, i32 0, i32 0
  %21 = load i8, ptr %20, align 1
  ret i8 %21
}