; Function Attrs: mustprogress uwtable
define i8 @_ZN9grpc_core23CompressionAlgorithmSet15FromChannelArgsERKNS_11ChannelArgsE(ptr noundef nonnull align 8 dereferenceable(8) %0) local_unnamed_addr #6 align 2 personality ptr @__gxx_personality_v0 {
  %2 = alloca %"class.grpc_core::CompressionAlgorithmSet", align 1
  %3 = alloca %"class.grpc_core::CompressionAlgorithmSet", align 1
  call void @llvm.lifetime.start.p0(i64 1, ptr nonnull %3) #28
  call void @_ZN9grpc_core23CompressionAlgorithmSetC1Ev(ptr noundef nonnull align 1 dereferenceable(1) %3)
  %4 = call i64 @_ZNK9grpc_core11ChannelArgs6GetIntESt17basic_string_viewIcSt11char_traitsIcEE(ptr noundef nonnull align 8 dereferenceable(8) %0, i64 42, ptr nonnull @.str.7)
  %.sroa.01.0.extract.trunc = trunc i64 %4 to i32
  %5 = and i64 %4, 4294967296
  %.not = icmp eq i64 %5, 0
  %.0.i = select i1 %.not, i32 7, i32 %.sroa.01.0.extract.trunc
  call void @llvm.lifetime.start.p0(i64 1, ptr nonnull %2)
  call void @_ZN9grpc_core23CompressionAlgorithmSetC1Ev(ptr noundef nonnull align 1 dereferenceable(1) %2)
  %.promoted.i = load i8, ptr %2, align 1
  br label %6

6:                                                ; preds = %6, %1
  %.05.i = phi i64 [ 0, %1 ], [ %15, %6 ]
  %7 = phi i8 [ %.promoted.i, %1 ], [ %14, %6 ]
  %8 = trunc nuw nsw i64 %.05.i to i32
  %9 = shl nuw nsw i32 1, %8
  %10 = and i32 %9, %.0.i
  %.not.i = icmp eq i32 %10, 0
  %11 = trunc nuw i64 %.05.i to i8
  %12 = shl nuw nsw i8 1, %11
  %13 = select i1 %.not.i, i8 0, i8 %12
  %14 = or i8 %13, %7
  %15 = add nuw nsw i64 %.05.i, 1
  %exitcond.not.i = icmp eq i64 %15, 3
  br i1 %exitcond.not.i, label %_ZN9grpc_core23CompressionAlgorithmSet10FromUint32Ej.exit, label %6, !llvm.loop !28

_ZN9grpc_core23CompressionAlgorithmSet10FromUint32Ej.exit: ; preds = %6
  call void @llvm.lifetime.end.p0(i64 1, ptr nonnull %2)
  call void @llvm.lifetime.end.p0(i64 1, ptr nonnull %3) #28
  ret i8 %14
}